; Function Attrs: mustprogress nofree norecurse nosync nounwind willreturn memory(read, inaccessiblemem: none) uwtable
define dso_local noundef i32 @_ZNK7testing8UnitTest21reportable_test_countEv(ptr noundef nonnull readonly align 8 captures(none) dereferenceable(72) %0) local_unnamed_addr #24 align 2 {
  %2 = getelementptr inbounds nuw i8, ptr %0, i64 64
  %3 = load ptr, ptr %2, align 8, !tbaa !57
  %4 = getelementptr inbounds nuw i8, ptr %3, i64 184
  %5 = getelementptr inbounds nuw i8, ptr %3, i64 192
  %6 = load ptr, ptr %5, align 8, !tbaa !714
  %7 = load ptr, ptr %4, align 8, !tbaa !715
  %.not15.i.i = icmp eq ptr %6, %7
  br i1 %.not15.i.i, label %_ZNK7testing8internal12UnitTestImpl21reportable_test_countEv.exit, label %.lr.ph.split.us.i.preheader.i

.lr.ph.split.us.i.preheader.i:                    ; preds = %1
  %8 = ptrtoint ptr %6 to i64
  %9 = ptrtoint ptr %7 to i64
  %10 = sub i64 %8, %9
  %11 = ashr exact i64 %10, 3
  %umax.i = tail call i64 @llvm.umax.i64(i64 %11, i64 1)
  br label %.lr.ph.split.us.i.i

.lr.ph.split.us.i.i:                              ; preds = %_ZNK7testing9TestSuite21reportable_test_countEv.exit.i, %.lr.ph.split.us.i.preheader.i
  %.014.us.i.i = phi i64 [ %29, %_ZNK7testing9TestSuite21reportable_test_countEv.exit.i ], [ 0, %.lr.ph.split.us.i.preheader.i ]
  %.01213.us.i.i = phi i32 [ %28, %_ZNK7testing9TestSuite21reportable_test_countEv.exit.i ], [ 0, %.lr.ph.split.us.i.preheader.i ]
  %12 = getelementptr inbounds nuw ptr, ptr %7, i64 %.014.us.i.i
  %13 = load ptr, ptr %12, align 8, !tbaa !699
  %14 = getelementptr inbounds nuw i8, ptr %13, i64 48
  %15 = load ptr, ptr %14, align 8, !tbaa !716
  %16 = getelementptr inbounds nuw i8, ptr %13, i64 56
  %17 = load ptr, ptr %16, align 8, !tbaa !716
  %.not7.i.i.i = icmp eq ptr %15, %17
  br i1 %.not7.i.i.i, label %_ZNK7testing9TestSuite21reportable_test_countEv.exit.i, label %.lr.ph.i.i.i

.lr.ph.i.i.i:                                     ; preds = %.lr.ph.split.us.i.i, %.lr.ph.i.i.i
  %.09.i.i.i = phi i32 [ %spec.select.i.i.i, %.lr.ph.i.i.i ], [ 0, %.lr.ph.split.us.i.i ]
  %.sroa.04.08.i.i.i = phi ptr [ %27, %.lr.ph.i.i.i ], [ %15, %.lr.ph.split.us.i.i ]
  %18 = load ptr, ptr %.sroa.04.08.i.i.i, align 8, !tbaa !717
  %19 = getelementptr inbounds nuw i8, ptr %18, i64 130
  %20 = load i8, ptr %19, align 2, !tbaa !725, !range !17, !noundef !18
  %21 = trunc nuw i8 %20 to i1
  %22 = getelementptr inbounds nuw i8, ptr %18, i64 131
  %23 = load i8, ptr %22, align 1, !range !17
  %24 = xor i8 %23, 1
  %25 = zext nneg i8 %24 to i32
  %26 = select i1 %21, i32 %25, i32 0
  %spec.select.i.i.i = add nuw nsw i32 %26, %.09.i.i.i
  %27 = getelementptr inbounds nuw i8, ptr %.sroa.04.08.i.i.i, i64 8
  %.not.i.i.i = icmp eq ptr %27, %17
  br i1 %.not.i.i.i, label %_ZNK7testing9TestSuite21reportable_test_countEv.exit.i, label %.lr.ph.i.i.i, !llvm.loop !723

_ZNK7testing9TestSuite21reportable_test_countEv.exit.i: ; preds = %.lr.ph.i.i.i, %.lr.ph.split.us.i.i
  %.0.lcssa.i.i.i = phi i32 [ 0, %.lr.ph.split.us.i.i ], [ %spec.select.i.i.i, %.lr.ph.i.i.i ]
  %28 = add nsw i32 %.0.lcssa.i.i.i, %.01213.us.i.i
  %29 = add nuw i64 %.014.us.i.i, 1
  %exitcond.not.i = icmp eq i64 %29, %umax.i
  br i1 %exitcond.not.i, label %_ZNK7testing8internal12UnitTestImpl21reportable_test_countEv.exit, label %.lr.ph.split.us.i.i, !llvm.loop !724

_ZNK7testing8internal12UnitTestImpl21reportable_test_countEv.exit: ; preds = %_ZNK7testing9TestSuite21reportable_test_countEv.exit.i, %1
  %.012.lcssa.i.i = phi i32 [ 0, %1 ], [ %28, %_ZNK7testing9TestSuite21reportable_test_countEv.exit.i ]
  ret i32 %.012.lcssa.i.i
}